; ModuleID = 'TestProgram.cpp'
source_filename = "TestProgram.cpp"
target datalayout = "e-m:e-p270:32:32-p271:32:32-p272:64:64-i64:64-f80:128-n8:16:32:64-S128"
target triple = "x86_64-unknown-linux-gnu"

%class.AES = type { i32, i32, i32, i32, i8* }

@input = dso_local global i8* null, align 8, !dbg !0
@enc = dso_local global <{ [32 x i8], [68 x i8] }> <{ [32 x i8] c"\CEjd\09t\00\F7\F0\861[x\E3\05o\FA\CF1\00E\FF\19\DF\EB\EA\CC3\97&\CE\BC\A3", [68 x i8] zeroinitializer }>, align 16, !dbg !9
@.str = private unnamed_addr constant [26 x i8] c"Welcome to LLVM world...\0A\00", align 1
@.str.1 = private unnamed_addr constant [18 x i8] c"Your flag is: %s\0A\00", align 1
@.str.2 = private unnamed_addr constant [17 x i8] c"1234567812345678\00", align 1
@.str.3 = private unnamed_addr constant [18 x i8] c"Congratulations~\0A\00", align 1
@.str.4 = private unnamed_addr constant [18 x i8] c"Sorry try again.\0A\00", align 1

; Function Attrs: noinline norecurse optnone uwtable mustprogress
define dso_local i32 @main(i32 %argc, i8** %argv) #0 !dbg !478 {
entry:
  %retval = alloca i32, align 4
  %argc.addr = alloca i32, align 4
  %argv.addr = alloca i8**, align 8
  %aes = alloca %class.AES, align 8
  %outlen = alloca i32, align 4
  %dest = alloca i8*, align 8
  store i32 0, i32* %retval, align 4
  store i32 %argc, i32* %argc.addr, align 4
  call void @llvm.dbg.declare(metadata i32* %argc.addr, metadata !481, metadata !DIExpression()), !dbg !482
  store i8** %argv, i8*** %argv.addr, align 8
  call void @llvm.dbg.declare(metadata i8*** %argv.addr, metadata !483, metadata !DIExpression()), !dbg !484
  %call = call i32 (i8*, ...) @printf(i8* getelementptr inbounds ([26 x i8], [26 x i8]* @.str, i64 0, i64 0)), !dbg !485
  %0 = load i8**, i8*** %argv.addr, align 8, !dbg !486
  %arrayidx = getelementptr inbounds i8*, i8** %0, i64 1, !dbg !486
  %1 = load i8*, i8** %arrayidx, align 8, !dbg !486
  store i8* %1, i8** @input, align 8, !dbg !487
  %2 = load i8*, i8** @input, align 8, !dbg !488
  %call1 = call i32 (i8*, ...) @printf(i8* getelementptr inbounds ([18 x i8], [18 x i8]* @.str.1, i64 0, i64 0), i8* %2), !dbg !489
  call void @llvm.dbg.declare(metadata %class.AES* %aes, metadata !490, metadata !DIExpression()), !dbg !561
  call void @_ZN3AESC1EPhi(%class.AES* nonnull dereferenceable(24) %aes, i8* getelementptr inbounds ([17 x i8], [17 x i8]* @.str.2, i64 0, i64 0), i32 128), !dbg !561
  call void @llvm.dbg.declare(metadata i32* %outlen, metadata !562, metadata !DIExpression()), !dbg !563
  call void @llvm.dbg.declare(metadata i8** %dest, metadata !564, metadata !DIExpression()), !dbg !565
  %3 = load i8*, i8** @input, align 8, !dbg !566
  %call2 = call i8* @_ZN3AES10EncryptECBEPhiRi(%class.AES* nonnull dereferenceable(24) %aes, i8* %3, i32 22, i32* nonnull align 4 dereferenceable(4) %outlen), !dbg !567
  store i8* %call2, i8** %dest, align 8, !dbg !565
  %4 = load i8*, i8** @input, align 8, !dbg !568
  %call3 = call i64 @strlen(i8* %4) #4, !dbg !570
  %cmp = icmp eq i64 %call3, 22, !dbg !571
  br i1 %cmp, label %land.lhs.true, label %if.else, !dbg !572

land.lhs.true:                                    ; preds = %entry
  %5 = load i8*, i8** %dest, align 8, !dbg !573
  %call4 = call i32 @memcmp(i8* %5, i8* getelementptr inbounds ([100 x i8], [100 x i8]* bitcast (<{ [32 x i8], [68 x i8] }>* @enc to [100 x i8]*), i64 0, i64 0), i64 32) #4, !dbg !574
  %tobool = icmp ne i32 %call4, 0, !dbg !574
  br i1 %tobool, label %if.else, label %if.then, !dbg !575

if.then:                                          ; preds = %land.lhs.true
  %call5 = call i32 (i8*, ...) @printf(i8* getelementptr inbounds ([18 x i8], [18 x i8]* @.str.3, i64 0, i64 0)), !dbg !576
  store i32 0, i32* %retval, align 4, !dbg !578
  br label %return, !dbg !578

if.else:                                          ; preds = %land.lhs.true, %entry
  %call6 = call i32 (i8*, ...) @printf(i8* getelementptr inbounds ([18 x i8], [18 x i8]* @.str.4, i64 0, i64 0)), !dbg !579
  store i32 -1, i32* %retval, align 4, !dbg !581
  br label %return, !dbg !581

return:                                           ; preds = %if.else, %if.then
  %6 = load i32, i32* %retval, align 4, !dbg !582
  ret i32 %6, !dbg !582
}

; Function Attrs: nofree nosync nounwind readnone speculatable willreturn
declare void @llvm.dbg.declare(metadata, metadata, metadata) #1

declare dso_local i32 @printf(i8*, ...) #2

declare dso_local void @_ZN3AESC1EPhi(%class.AES* nonnull dereferenceable(24), i8*, i32) unnamed_addr #2

declare dso_local i8* @_ZN3AES10EncryptECBEPhiRi(%class.AES* nonnull dereferenceable(24), i8*, i32, i32* nonnull align 4 dereferenceable(4)) #2

; Function Attrs: nounwind readonly willreturn
declare dso_local i64 @strlen(i8*) #3

; Function Attrs: nounwind readonly willreturn
declare dso_local i32 @memcmp(i8*, i8*, i64) #3

attributes #0 = { noinline norecurse optnone uwtable mustprogress "disable-tail-calls"="false" "frame-pointer"="all" "less-precise-fpmad"="false" "min-legal-vector-width"="0" "no-infs-fp-math"="false" "no-jump-tables"="false" "no-nans-fp-math"="false" "no-signed-zeros-fp-math"="false" "no-trapping-math"="true" "stack-protector-buffer-size"="8" "target-cpu"="x86-64" "target-features"="+cx8,+fxsr,+mmx,+sse,+sse2,+x87" "tune-cpu"="generic" "unsafe-fp-math"="false" "use-soft-float"="false" }
attributes #1 = { nofree nosync nounwind readnone speculatable willreturn }
attributes #2 = { "disable-tail-calls"="false" "frame-pointer"="all" "less-precise-fpmad"="false" "no-infs-fp-math"="false" "no-nans-fp-math"="false" "no-signed-zeros-fp-math"="false" "no-trapping-math"="true" "stack-protector-buffer-size"="8" "target-cpu"="x86-64" "target-features"="+cx8,+fxsr,+mmx,+sse,+sse2,+x87" "tune-cpu"="generic" "unsafe-fp-math"="false" "use-soft-float"="false" }
attributes #3 = { nounwind readonly willreturn "disable-tail-calls"="false" "frame-pointer"="all" "less-precise-fpmad"="false" "no-infs-fp-math"="false" "no-nans-fp-math"="false" "no-signed-zeros-fp-math"="false" "no-trapping-math"="true" "stack-protector-buffer-size"="8" "target-cpu"="x86-64" "target-features"="+cx8,+fxsr,+mmx,+sse,+sse2,+x87" "tune-cpu"="generic" "unsafe-fp-math"="false" "use-soft-float"="false" }
attributes #4 = { nounwind readonly willreturn }

!llvm.dbg.cu = !{!2}
!llvm.module.flags = !{!474, !475, !476}
!llvm.ident = !{!477}

!0 = !DIGlobalVariableExpression(var: !1, expr: !DIExpression())
!1 = distinct !DIGlobalVariable(name: "input", scope: !2, file: !3, line: 6, type: !58, isLocal: false, isDefinition: true)
!2 = distinct !DICompileUnit(language: DW_LANG_C_plus_plus_14, file: !3, producer: "clang version 12.0.1 (git@github.com:bluesadi/Pluto-Obfuscator.git 3d6277c2840cc0f1693b81b7424b2315b24dad89)", isOptimized: false, runtimeVersion: 0, emissionKind: FullDebug, enums: !4, retainedTypes: !5, globals: !8, imports: !15, splitDebugInlining: false, nameTableKind: None)
!3 = !DIFile(filename: "TestProgram.cpp", directory: "/root/dev/Pluto-Obfuscator/test/aes")
!4 = !{}
!5 = !{!6}
!6 = !DIDerivedType(tag: DW_TAG_pointer_type, baseType: !7, size: 64)
!7 = !DIBasicType(name: "unsigned char", size: 8, encoding: DW_ATE_unsigned_char)
!8 = !{!0, !9}
!9 = !DIGlobalVariableExpression(var: !10, expr: !DIExpression())
!10 = distinct !DIGlobalVariable(name: "enc", scope: !2, file: !3, line: 7, type: !11, isLocal: false, isDefinition: true)
!11 = !DICompositeType(tag: DW_TAG_array_type, baseType: !12, size: 800, elements: !13)
!12 = !DIBasicType(name: "char", size: 8, encoding: DW_ATE_signed_char)
!13 = !{!14}
!14 = !DISubrange(count: 100)
!15 = !{!16, !23, !29, !34, !39, !41, !43, !45, !47, !54, !60, !67, !71, !75, !79, !88, !92, !94, !99, !105, !109, !116, !118, !122, !126, !130, !132, !136, !140, !142, !146, !148, !150, !154, !158, !162, !166, !170, !174, !176, !182, !186, !190, !195, !197, !199, !203, !207, !208, !209, !210, !211, !212, !218, !222, !226, !230, !234, !238, !240, !242, !244, !248, !252, !256, !260, !264, !266, !268, !270, !274, !278, !282, !284, !286, !290, !294, !300, !304, !309, !311, !316, !318, !322, !330, !334, !338, !342, !346, !350, !354, !358, !362, !366, !373, !377, !381, !383, !385, !389, !394, !400, !404, !408, !410, !417, !421, !428, !430, !434, !438, !442, !446, !451, !456, !461, !462, !463, !464, !466, !467, !468, !469, !470, !471, !472}
!16 = !DIImportedEntity(tag: DW_TAG_imported_declaration, scope: !17, entity: !18, file: !22, line: 98)
!17 = !DINamespace(name: "std", scope: null)
!18 = !DIDerivedType(tag: DW_TAG_typedef, name: "FILE", file: !19, line: 7, baseType: !20)
!19 = !DIFile(filename: "/usr/include/x86_64-linux-gnu/bits/types/FILE.h", directory: "")
!20 = !DICompositeType(tag: DW_TAG_structure_type, name: "_IO_FILE", file: !21, line: 49, size: 1728, flags: DIFlagFwdDecl, identifier: "_ZTS8_IO_FILE")
!21 = !DIFile(filename: "/usr/include/x86_64-linux-gnu/bits/types/struct_FILE.h", directory: "")
!22 = !DIFile(filename: "/usr/lib/gcc/x86_64-linux-gnu/9/../../../../include/c++/9/cstdio", directory: "")
!23 = !DIImportedEntity(tag: DW_TAG_imported_declaration, scope: !17, entity: !24, file: !22, line: 99)
!24 = !DIDerivedType(tag: DW_TAG_typedef, name: "fpos_t", file: !25, line: 84, baseType: !26)
!25 = !DIFile(filename: "/usr/include/stdio.h", directory: "")
!26 = !DIDerivedType(tag: DW_TAG_typedef, name: "__fpos_t", file: !27, line: 14, baseType: !28)
!27 = !DIFile(filename: "/usr/include/x86_64-linux-gnu/bits/types/__fpos_t.h", directory: "")
!28 = !DICompositeType(tag: DW_TAG_structure_type, name: "_G_fpos_t", file: !27, line: 10, size: 128, flags: DIFlagFwdDecl, identifier: "_ZTS9_G_fpos_t")
!29 = !DIImportedEntity(tag: DW_TAG_imported_declaration, scope: !17, entity: !30, file: !22, line: 101)
!30 = !DISubprogram(name: "clearerr", scope: !25, file: !25, line: 757, type: !31, flags: DIFlagPrototyped, spFlags: 0)
!31 = !DISubroutineType(types: !32)
!32 = !{null, !33}
!33 = !DIDerivedType(tag: DW_TAG_pointer_type, baseType: !18, size: 64)
!34 = !DIImportedEntity(tag: DW_TAG_imported_declaration, scope: !17, entity: !35, file: !22, line: 102)
!35 = !DISubprogram(name: "fclose", scope: !25, file: !25, line: 213, type: !36, flags: DIFlagPrototyped, spFlags: 0)
!36 = !DISubroutineType(types: !37)
!37 = !{!38, !33}
!38 = !DIBasicType(name: "int", size: 32, encoding: DW_ATE_signed)
!39 = !DIImportedEntity(tag: DW_TAG_imported_declaration, scope: !17, entity: !40, file: !22, line: 103)
!40 = !DISubprogram(name: "feof", scope: !25, file: !25, line: 759, type: !36, flags: DIFlagPrototyped, spFlags: 0)
!41 = !DIImportedEntity(tag: DW_TAG_imported_declaration, scope: !17, entity: !42, file: !22, line: 104)
!42 = !DISubprogram(name: "ferror", scope: !25, file: !25, line: 761, type: !36, flags: DIFlagPrototyped, spFlags: 0)
!43 = !DIImportedEntity(tag: DW_TAG_imported_declaration, scope: !17, entity: !44, file: !22, line: 105)
!44 = !DISubprogram(name: "fflush", scope: !25, file: !25, line: 218, type: !36, flags: DIFlagPrototyped, spFlags: 0)
!45 = !DIImportedEntity(tag: DW_TAG_imported_declaration, scope: !17, entity: !46, file: !22, line: 106)
!46 = !DISubprogram(name: "fgetc", scope: !25, file: !25, line: 485, type: !36, flags: DIFlagPrototyped, spFlags: 0)
!47 = !DIImportedEntity(tag: DW_TAG_imported_declaration, scope: !17, entity: !48, file: !22, line: 107)
!48 = !DISubprogram(name: "fgetpos", scope: !25, file: !25, line: 731, type: !49, flags: DIFlagPrototyped, spFlags: 0)
!49 = !DISubroutineType(types: !50)
!50 = !{!38, !51, !52}
!51 = !DIDerivedType(tag: DW_TAG_restrict_type, baseType: !33)
!52 = !DIDerivedType(tag: DW_TAG_restrict_type, baseType: !53)
!53 = !DIDerivedType(tag: DW_TAG_pointer_type, baseType: !24, size: 64)
!54 = !DIImportedEntity(tag: DW_TAG_imported_declaration, scope: !17, entity: !55, file: !22, line: 108)
!55 = !DISubprogram(name: "fgets", scope: !25, file: !25, line: 564, type: !56, flags: DIFlagPrototyped, spFlags: 0)
!56 = !DISubroutineType(types: !57)
!57 = !{!58, !59, !38, !51}
!58 = !DIDerivedType(tag: DW_TAG_pointer_type, baseType: !12, size: 64)
!59 = !DIDerivedType(tag: DW_TAG_restrict_type, baseType: !58)
!60 = !DIImportedEntity(tag: DW_TAG_imported_declaration, scope: !17, entity: !61, file: !22, line: 109)
!61 = !DISubprogram(name: "fopen", scope: !25, file: !25, line: 246, type: !62, flags: DIFlagPrototyped, spFlags: 0)
!62 = !DISubroutineType(types: !63)
!63 = !{!33, !64, !64}
!64 = !DIDerivedType(tag: DW_TAG_restrict_type, baseType: !65)
!65 = !DIDerivedType(tag: DW_TAG_pointer_type, baseType: !66, size: 64)
!66 = !DIDerivedType(tag: DW_TAG_const_type, baseType: !12)
!67 = !DIImportedEntity(tag: DW_TAG_imported_declaration, scope: !17, entity: !68, file: !22, line: 110)
!68 = !DISubprogram(name: "fprintf", scope: !25, file: !25, line: 326, type: !69, flags: DIFlagPrototyped, spFlags: 0)
!69 = !DISubroutineType(types: !70)
!70 = !{!38, !51, !64, null}
!71 = !DIImportedEntity(tag: DW_TAG_imported_declaration, scope: !17, entity: !72, file: !22, line: 111)
!72 = !DISubprogram(name: "fputc", scope: !25, file: !25, line: 521, type: !73, flags: DIFlagPrototyped, spFlags: 0)
!73 = !DISubroutineType(types: !74)
!74 = !{!38, !38, !33}
!75 = !DIImportedEntity(tag: DW_TAG_imported_declaration, scope: !17, entity: !76, file: !22, line: 112)
!76 = !DISubprogram(name: "fputs", scope: !25, file: !25, line: 626, type: !77, flags: DIFlagPrototyped, spFlags: 0)
!77 = !DISubroutineType(types: !78)
!78 = !{!38, !64, !51}
!79 = !DIImportedEntity(tag: DW_TAG_imported_declaration, scope: !17, entity: !80, file: !22, line: 113)
!80 = !DISubprogram(name: "fread", scope: !25, file: !25, line: 646, type: !81, flags: DIFlagPrototyped, spFlags: 0)
!81 = !DISubroutineType(types: !82)
!82 = !{!83, !86, !83, !83, !51}
!83 = !DIDerivedType(tag: DW_TAG_typedef, name: "size_t", file: !84, line: 46, baseType: !85)
!84 = !DIFile(filename: "build/lib/clang/12.0.1/include/stddef.h", directory: "/root/dev/Pluto-Obfuscator")
!85 = !DIBasicType(name: "long unsigned int", size: 64, encoding: DW_ATE_unsigned)
!86 = !DIDerivedType(tag: DW_TAG_restrict_type, baseType: !87)
!87 = !DIDerivedType(tag: DW_TAG_pointer_type, baseType: null, size: 64)
!88 = !DIImportedEntity(tag: DW_TAG_imported_declaration, scope: !17, entity: !89, file: !22, line: 114)
!89 = !DISubprogram(name: "freopen", scope: !25, file: !25, line: 252, type: !90, flags: DIFlagPrototyped, spFlags: 0)
!90 = !DISubroutineType(types: !91)
!91 = !{!33, !64, !64, !51}
!92 = !DIImportedEntity(tag: DW_TAG_imported_declaration, scope: !17, entity: !93, file: !22, line: 115)
!93 = !DISubprogram(name: "fscanf", linkageName: "__isoc99_fscanf", scope: !25, file: !25, line: 407, type: !69, flags: DIFlagPrototyped, spFlags: 0)
!94 = !DIImportedEntity(tag: DW_TAG_imported_declaration, scope: !17, entity: !95, file: !22, line: 116)
!95 = !DISubprogram(name: "fseek", scope: !25, file: !25, line: 684, type: !96, flags: DIFlagPrototyped, spFlags: 0)
!96 = !DISubroutineType(types: !97)
!97 = !{!38, !33, !98, !38}
!98 = !DIBasicType(name: "long int", size: 64, encoding: DW_ATE_signed)
!99 = !DIImportedEntity(tag: DW_TAG_imported_declaration, scope: !17, entity: !100, file: !22, line: 117)
!100 = !DISubprogram(name: "fsetpos", scope: !25, file: !25, line: 736, type: !101, flags: DIFlagPrototyped, spFlags: 0)
!101 = !DISubroutineType(types: !102)
!102 = !{!38, !33, !103}
!103 = !DIDerivedType(tag: DW_TAG_pointer_type, baseType: !104, size: 64)
!104 = !DIDerivedType(tag: DW_TAG_const_type, baseType: !24)
!105 = !DIImportedEntity(tag: DW_TAG_imported_declaration, scope: !17, entity: !106, file: !22, line: 118)
!106 = !DISubprogram(name: "ftell", scope: !25, file: !25, line: 689, type: !107, flags: DIFlagPrototyped, spFlags: 0)
!107 = !DISubroutineType(types: !108)
!108 = !{!98, !33}
!109 = !DIImportedEntity(tag: DW_TAG_imported_declaration, scope: !17, entity: !110, file: !22, line: 119)
!110 = !DISubprogram(name: "fwrite", scope: !25, file: !25, line: 652, type: !111, flags: DIFlagPrototyped, spFlags: 0)
!111 = !DISubroutineType(types: !112)
!112 = !{!83, !113, !83, !83, !51}
!113 = !DIDerivedType(tag: DW_TAG_restrict_type, baseType: !114)
!114 = !DIDerivedType(tag: DW_TAG_pointer_type, baseType: !115, size: 64)
!115 = !DIDerivedType(tag: DW_TAG_const_type, baseType: null)
!116 = !DIImportedEntity(tag: DW_TAG_imported_declaration, scope: !17, entity: !117, file: !22, line: 120)
!117 = !DISubprogram(name: "getc", scope: !25, file: !25, line: 486, type: !36, flags: DIFlagPrototyped, spFlags: 0)
!118 = !DIImportedEntity(tag: DW_TAG_imported_declaration, scope: !17, entity: !119, file: !22, line: 121)
!119 = !DISubprogram(name: "getchar", scope: !25, file: !25, line: 492, type: !120, flags: DIFlagPrototyped, spFlags: 0)
!120 = !DISubroutineType(types: !121)
!121 = !{!38}
!122 = !DIImportedEntity(tag: DW_TAG_imported_declaration, scope: !17, entity: !123, file: !22, line: 126)
!123 = !DISubprogram(name: "perror", scope: !25, file: !25, line: 775, type: !124, flags: DIFlagPrototyped, spFlags: 0)
!124 = !DISubroutineType(types: !125)
!125 = !{null, !65}
!126 = !DIImportedEntity(tag: DW_TAG_imported_declaration, scope: !17, entity: !127, file: !22, line: 127)
!127 = !DISubprogram(name: "printf", scope: !25, file: !25, line: 332, type: !128, flags: DIFlagPrototyped, spFlags: 0)
!128 = !DISubroutineType(types: !129)
!129 = !{!38, !64, null}
!130 = !DIImportedEntity(tag: DW_TAG_imported_declaration, scope: !17, entity: !131, file: !22, line: 128)
!131 = !DISubprogram(name: "putc", scope: !25, file: !25, line: 522, type: !73, flags: DIFlagPrototyped, spFlags: 0)
!132 = !DIImportedEntity(tag: DW_TAG_imported_declaration, scope: !17, entity: !133, file: !22, line: 129)
!133 = !DISubprogram(name: "putchar", scope: !25, file: !25, line: 528, type: !134, flags: DIFlagPrototyped, spFlags: 0)
!134 = !DISubroutineType(types: !135)
!135 = !{!38, !38}
!136 = !DIImportedEntity(tag: DW_TAG_imported_declaration, scope: !17, entity: !137, file: !22, line: 130)
!137 = !DISubprogram(name: "puts", scope: !25, file: !25, line: 632, type: !138, flags: DIFlagPrototyped, spFlags: 0)
!138 = !DISubroutineType(types: !139)
!139 = !{!38, !65}
!140 = !DIImportedEntity(tag: DW_TAG_imported_declaration, scope: !17, entity: !141, file: !22, line: 131)
!141 = !DISubprogram(name: "remove", scope: !25, file: !25, line: 146, type: !138, flags: DIFlagPrototyped, spFlags: 0)
!142 = !DIImportedEntity(tag: DW_TAG_imported_declaration, scope: !17, entity: !143, file: !22, line: 132)
!143 = !DISubprogram(name: "rename", scope: !25, file: !25, line: 148, type: !144, flags: DIFlagPrototyped, spFlags: 0)
!144 = !DISubroutineType(types: !145)
!145 = !{!38, !65, !65}
!146 = !DIImportedEntity(tag: DW_TAG_imported_declaration, scope: !17, entity: !147, file: !22, line: 133)
!147 = !DISubprogram(name: "rewind", scope: !25, file: !25, line: 694, type: !31, flags: DIFlagPrototyped, spFlags: 0)
!148 = !DIImportedEntity(tag: DW_TAG_imported_declaration, scope: !17, entity: !149, file: !22, line: 134)
!149 = !DISubprogram(name: "scanf", linkageName: "__isoc99_scanf", scope: !25, file: !25, line: 410, type: !128, flags: DIFlagPrototyped, spFlags: 0)
!150 = !DIImportedEntity(tag: DW_TAG_imported_declaration, scope: !17, entity: !151, file: !22, line: 135)
!151 = !DISubprogram(name: "setbuf", scope: !25, file: !25, line: 304, type: !152, flags: DIFlagPrototyped, spFlags: 0)
!152 = !DISubroutineType(types: !153)
!153 = !{null, !51, !59}
!154 = !DIImportedEntity(tag: DW_TAG_imported_declaration, scope: !17, entity: !155, file: !22, line: 136)
!155 = !DISubprogram(name: "setvbuf", scope: !25, file: !25, line: 308, type: !156, flags: DIFlagPrototyped, spFlags: 0)
!156 = !DISubroutineType(types: !157)
!157 = !{!38, !51, !59, !38, !83}
!158 = !DIImportedEntity(tag: DW_TAG_imported_declaration, scope: !17, entity: !159, file: !22, line: 137)
!159 = !DISubprogram(name: "sprintf", scope: !25, file: !25, line: 334, type: !160, flags: DIFlagPrototyped, spFlags: 0)
!160 = !DISubroutineType(types: !161)
!161 = !{!38, !59, !64, null}
!162 = !DIImportedEntity(tag: DW_TAG_imported_declaration, scope: !17, entity: !163, file: !22, line: 138)
!163 = !DISubprogram(name: "sscanf", linkageName: "__isoc99_sscanf", scope: !25, file: !25, line: 412, type: !164, flags: DIFlagPrototyped, spFlags: 0)
!164 = !DISubroutineType(types: !165)
!165 = !{!38, !64, !64, null}
!166 = !DIImportedEntity(tag: DW_TAG_imported_declaration, scope: !17, entity: !167, file: !22, line: 139)
!167 = !DISubprogram(name: "tmpfile", scope: !25, file: !25, line: 173, type: !168, flags: DIFlagPrototyped, spFlags: 0)
!168 = !DISubroutineType(types: !169)
!169 = !{!33}
!170 = !DIImportedEntity(tag: DW_TAG_imported_declaration, scope: !17, entity: !171, file: !22, line: 141)
!171 = !DISubprogram(name: "tmpnam", scope: !25, file: !25, line: 187, type: !172, flags: DIFlagPrototyped, spFlags: 0)
!172 = !DISubroutineType(types: !173)
!173 = !{!58, !58}
!174 = !DIImportedEntity(tag: DW_TAG_imported_declaration, scope: !17, entity: !175, file: !22, line: 143)
!175 = !DISubprogram(name: "ungetc", scope: !25, file: !25, line: 639, type: !73, flags: DIFlagPrototyped, spFlags: 0)
!176 = !DIImportedEntity(tag: DW_TAG_imported_declaration, scope: !17, entity: !177, file: !22, line: 144)
!177 = !DISubprogram(name: "vfprintf", scope: !25, file: !25, line: 341, type: !178, flags: DIFlagPrototyped, spFlags: 0)
!178 = !DISubroutineType(types: !179)
!179 = !{!38, !51, !64, !180}
!180 = !DIDerivedType(tag: DW_TAG_pointer_type, baseType: !181, size: 64)
!181 = !DICompositeType(tag: DW_TAG_structure_type, name: "__va_list_tag", file: !3, size: 192, flags: DIFlagFwdDecl, identifier: "_ZTS13__va_list_tag")
!182 = !DIImportedEntity(tag: DW_TAG_imported_declaration, scope: !17, entity: !183, file: !22, line: 145)
!183 = !DISubprogram(name: "vprintf", scope: !25, file: !25, line: 347, type: !184, flags: DIFlagPrototyped, spFlags: 0)
!184 = !DISubroutineType(types: !185)
!185 = !{!38, !64, !180}
!186 = !DIImportedEntity(tag: DW_TAG_imported_declaration, scope: !17, entity: !187, file: !22, line: 146)
!187 = !DISubprogram(name: "vsprintf", scope: !25, file: !25, line: 349, type: !188, flags: DIFlagPrototyped, spFlags: 0)
!188 = !DISubroutineType(types: !189)
!189 = !{!38, !59, !64, !180}
!190 = !DIImportedEntity(tag: DW_TAG_imported_declaration, scope: !191, entity: !192, file: !22, line: 175)
!191 = !DINamespace(name: "__gnu_cxx", scope: null)
!192 = !DISubprogram(name: "snprintf", scope: !25, file: !25, line: 354, type: !193, flags: DIFlagPrototyped, spFlags: 0)
!193 = !DISubroutineType(types: !194)
!194 = !{!38, !59, !83, !64, null}
!195 = !DIImportedEntity(tag: DW_TAG_imported_declaration, scope: !191, entity: !196, file: !22, line: 176)
!196 = !DISubprogram(name: "vfscanf", linkageName: "__isoc99_vfscanf", scope: !25, file: !25, line: 451, type: !178, flags: DIFlagPrototyped, spFlags: 0)
!197 = !DIImportedEntity(tag: DW_TAG_imported_declaration, scope: !191, entity: !198, file: !22, line: 177)
!198 = !DISubprogram(name: "vscanf", linkageName: "__isoc99_vscanf", scope: !25, file: !25, line: 456, type: !184, flags: DIFlagPrototyped, spFlags: 0)
!199 = !DIImportedEntity(tag: DW_TAG_imported_declaration, scope: !191, entity: !200, file: !22, line: 178)
!200 = !DISubprogram(name: "vsnprintf", scope: !25, file: !25, line: 358, type: !201, flags: DIFlagPrototyped, spFlags: 0)
!201 = !DISubroutineType(types: !202)
!202 = !{!38, !59, !83, !64, !180}
!203 = !DIImportedEntity(tag: DW_TAG_imported_declaration, scope: !191, entity: !204, file: !22, line: 179)
!204 = !DISubprogram(name: "vsscanf", linkageName: "__isoc99_vsscanf", scope: !25, file: !25, line: 459, type: !205, flags: DIFlagPrototyped, spFlags: 0)
!205 = !DISubroutineType(types: !206)
!206 = !{!38, !64, !64, !180}
!207 = !DIImportedEntity(tag: DW_TAG_imported_declaration, scope: !17, entity: !192, file: !22, line: 185)
!208 = !DIImportedEntity(tag: DW_TAG_imported_declaration, scope: !17, entity: !196, file: !22, line: 186)
!209 = !DIImportedEntity(tag: DW_TAG_imported_declaration, scope: !17, entity: !198, file: !22, line: 187)
!210 = !DIImportedEntity(tag: DW_TAG_imported_declaration, scope: !17, entity: !200, file: !22, line: 188)
!211 = !DIImportedEntity(tag: DW_TAG_imported_declaration, scope: !17, entity: !204, file: !22, line: 189)
!212 = !DIImportedEntity(tag: DW_TAG_imported_declaration, scope: !17, entity: !213, file: !217, line: 77)
!213 = !DISubprogram(name: "memchr", scope: !214, file: !214, line: 73, type: !215, flags: DIFlagPrototyped, spFlags: 0)
!214 = !DIFile(filename: "/usr/include/string.h", directory: "")
!215 = !DISubroutineType(types: !216)
!216 = !{!114, !114, !38, !83}
!217 = !DIFile(filename: "/usr/lib/gcc/x86_64-linux-gnu/9/../../../../include/c++/9/cstring", directory: "")
!218 = !DIImportedEntity(tag: DW_TAG_imported_declaration, scope: !17, entity: !219, file: !217, line: 78)
!219 = !DISubprogram(name: "memcmp", scope: !214, file: !214, line: 64, type: !220, flags: DIFlagPrototyped, spFlags: 0)
!220 = !DISubroutineType(types: !221)
!221 = !{!38, !114, !114, !83}
!222 = !DIImportedEntity(tag: DW_TAG_imported_declaration, scope: !17, entity: !223, file: !217, line: 79)
!223 = !DISubprogram(name: "memcpy", scope: !214, file: !214, line: 43, type: !224, flags: DIFlagPrototyped, spFlags: 0)
!224 = !DISubroutineType(types: !225)
!225 = !{!87, !86, !113, !83}
!226 = !DIImportedEntity(tag: DW_TAG_imported_declaration, scope: !17, entity: !227, file: !217, line: 80)
!227 = !DISubprogram(name: "memmove", scope: !214, file: !214, line: 47, type: !228, flags: DIFlagPrototyped, spFlags: 0)
!228 = !DISubroutineType(types: !229)
!229 = !{!87, !87, !114, !83}
!230 = !DIImportedEntity(tag: DW_TAG_imported_declaration, scope: !17, entity: !231, file: !217, line: 81)
!231 = !DISubprogram(name: "memset", scope: !214, file: !214, line: 61, type: !232, flags: DIFlagPrototyped, spFlags: 0)
!232 = !DISubroutineType(types: !233)
!233 = !{!87, !87, !38, !83}
!234 = !DIImportedEntity(tag: DW_TAG_imported_declaration, scope: !17, entity: !235, file: !217, line: 82)
!235 = !DISubprogram(name: "strcat", scope: !214, file: !214, line: 130, type: !236, flags: DIFlagPrototyped, spFlags: 0)
!236 = !DISubroutineType(types: !237)
!237 = !{!58, !59, !64}
!238 = !DIImportedEntity(tag: DW_TAG_imported_declaration, scope: !17, entity: !239, file: !217, line: 83)
!239 = !DISubprogram(name: "strcmp", scope: !214, file: !214, line: 137, type: !144, flags: DIFlagPrototyped, spFlags: 0)
!240 = !DIImportedEntity(tag: DW_TAG_imported_declaration, scope: !17, entity: !241, file: !217, line: 84)
!241 = !DISubprogram(name: "strcoll", scope: !214, file: !214, line: 144, type: !144, flags: DIFlagPrototyped, spFlags: 0)
!242 = !DIImportedEntity(tag: DW_TAG_imported_declaration, scope: !17, entity: !243, file: !217, line: 85)
!243 = !DISubprogram(name: "strcpy", scope: !214, file: !214, line: 122, type: !236, flags: DIFlagPrototyped, spFlags: 0)
!244 = !DIImportedEntity(tag: DW_TAG_imported_declaration, scope: !17, entity: !245, file: !217, line: 86)
!245 = !DISubprogram(name: "strcspn", scope: !214, file: !214, line: 273, type: !246, flags: DIFlagPrototyped, spFlags: 0)
!246 = !DISubroutineType(types: !247)
!247 = !{!83, !65, !65}
!248 = !DIImportedEntity(tag: DW_TAG_imported_declaration, scope: !17, entity: !249, file: !217, line: 87)
!249 = !DISubprogram(name: "strerror", scope: !214, file: !214, line: 397, type: !250, flags: DIFlagPrototyped, spFlags: 0)
!250 = !DISubroutineType(types: !251)
!251 = !{!58, !38}
!252 = !DIImportedEntity(tag: DW_TAG_imported_declaration, scope: !17, entity: !253, file: !217, line: 88)
!253 = !DISubprogram(name: "strlen", scope: !214, file: !214, line: 385, type: !254, flags: DIFlagPrototyped, spFlags: 0)
!254 = !DISubroutineType(types: !255)
!255 = !{!83, !65}
!256 = !DIImportedEntity(tag: DW_TAG_imported_declaration, scope: !17, entity: !257, file: !217, line: 89)
!257 = !DISubprogram(name: "strncat", scope: !214, file: !214, line: 133, type: !258, flags: DIFlagPrototyped, spFlags: 0)
!258 = !DISubroutineType(types: !259)
!259 = !{!58, !59, !64, !83}
!260 = !DIImportedEntity(tag: DW_TAG_imported_declaration, scope: !17, entity: !261, file: !217, line: 90)
!261 = !DISubprogram(name: "strncmp", scope: !214, file: !214, line: 140, type: !262, flags: DIFlagPrototyped, spFlags: 0)
!262 = !DISubroutineType(types: !263)
!263 = !{!38, !65, !65, !83}
!264 = !DIImportedEntity(tag: DW_TAG_imported_declaration, scope: !17, entity: !265, file: !217, line: 91)
!265 = !DISubprogram(name: "strncpy", scope: !214, file: !214, line: 125, type: !258, flags: DIFlagPrototyped, spFlags: 0)
!266 = !DIImportedEntity(tag: DW_TAG_imported_declaration, scope: !17, entity: !267, file: !217, line: 92)
!267 = !DISubprogram(name: "strspn", scope: !214, file: !214, line: 277, type: !246, flags: DIFlagPrototyped, spFlags: 0)
!268 = !DIImportedEntity(tag: DW_TAG_imported_declaration, scope: !17, entity: !269, file: !217, line: 93)
!269 = !DISubprogram(name: "strtok", scope: !214, file: !214, line: 336, type: !236, flags: DIFlagPrototyped, spFlags: 0)
!270 = !DIImportedEntity(tag: DW_TAG_imported_declaration, scope: !17, entity: !271, file: !217, line: 94)
!271 = !DISubprogram(name: "strxfrm", scope: !214, file: !214, line: 147, type: !272, flags: DIFlagPrototyped, spFlags: 0)
!272 = !DISubroutineType(types: !273)
!273 = !{!83, !59, !64, !83}
!274 = !DIImportedEntity(tag: DW_TAG_imported_declaration, scope: !17, entity: !275, file: !217, line: 95)
!275 = !DISubprogram(name: "strchr", scope: !214, file: !214, line: 208, type: !276, flags: DIFlagPrototyped, spFlags: 0)
!276 = !DISubroutineType(types: !277)
!277 = !{!65, !65, !38}
!278 = !DIImportedEntity(tag: DW_TAG_imported_declaration, scope: !17, entity: !279, file: !217, line: 96)
!279 = !DISubprogram(name: "strpbrk", scope: !214, file: !214, line: 285, type: !280, flags: DIFlagPrototyped, spFlags: 0)
!280 = !DISubroutineType(types: !281)
!281 = !{!65, !65, !65}
!282 = !DIImportedEntity(tag: DW_TAG_imported_declaration, scope: !17, entity: !283, file: !217, line: 97)
!283 = !DISubprogram(name: "strrchr", scope: !214, file: !214, line: 235, type: !276, flags: DIFlagPrototyped, spFlags: 0)
!284 = !DIImportedEntity(tag: DW_TAG_imported_declaration, scope: !17, entity: !285, file: !217, line: 98)
!285 = !DISubprogram(name: "strstr", scope: !214, file: !214, line: 312, type: !280, flags: DIFlagPrototyped, spFlags: 0)
!286 = !DIImportedEntity(tag: DW_TAG_imported_declaration, scope: !17, entity: !287, file: !289, line: 52)
!287 = !DISubprogram(name: "abs", scope: !288, file: !288, line: 840, type: !134, flags: DIFlagPrototyped, spFlags: 0)
!288 = !DIFile(filename: "/usr/include/stdlib.h", directory: "")
!289 = !DIFile(filename: "/usr/lib/gcc/x86_64-linux-gnu/9/../../../../include/c++/9/bits/std_abs.h", directory: "")
!290 = !DIImportedEntity(tag: DW_TAG_imported_declaration, scope: !17, entity: !291, file: !293, line: 127)
!291 = !DIDerivedType(tag: DW_TAG_typedef, name: "div_t", file: !288, line: 62, baseType: !292)
!292 = !DICompositeType(tag: DW_TAG_structure_type, file: !288, line: 58, size: 64, flags: DIFlagFwdDecl, identifier: "_ZTS5div_t")
!293 = !DIFile(filename: "/usr/lib/gcc/x86_64-linux-gnu/9/../../../../include/c++/9/cstdlib", directory: "")
!294 = !DIImportedEntity(tag: DW_TAG_imported_declaration, scope: !17, entity: !295, file: !293, line: 128)
!295 = !DIDerivedType(tag: DW_TAG_typedef, name: "ldiv_t", file: !288, line: 70, baseType: !296)
!296 = distinct !DICompositeType(tag: DW_TAG_structure_type, file: !288, line: 66, size: 128, flags: DIFlagTypePassByValue, elements: !297, identifier: "_ZTS6ldiv_t")
!297 = !{!298, !299}
!298 = !DIDerivedType(tag: DW_TAG_member, name: "quot", scope: !296, file: !288, line: 68, baseType: !98, size: 64)
!299 = !DIDerivedType(tag: DW_TAG_member, name: "rem", scope: !296, file: !288, line: 69, baseType: !98, size: 64, offset: 64)
!300 = !DIImportedEntity(tag: DW_TAG_imported_declaration, scope: !17, entity: !301, file: !293, line: 130)
!301 = !DISubprogram(name: "abort", scope: !288, file: !288, line: 591, type: !302, flags: DIFlagPrototyped | DIFlagNoReturn, spFlags: 0)
!302 = !DISubroutineType(types: !303)
!303 = !{null}
!304 = !DIImportedEntity(tag: DW_TAG_imported_declaration, scope: !17, entity: !305, file: !293, line: 134)
!305 = !DISubprogram(name: "atexit", scope: !288, file: !288, line: 595, type: !306, flags: DIFlagPrototyped, spFlags: 0)
!306 = !DISubroutineType(types: !307)
!307 = !{!38, !308}
!308 = !DIDerivedType(tag: DW_TAG_pointer_type, baseType: !302, size: 64)
!309 = !DIImportedEntity(tag: DW_TAG_imported_declaration, scope: !17, entity: !310, file: !293, line: 137)
!310 = !DISubprogram(name: "at_quick_exit", scope: !288, file: !288, line: 600, type: !306, flags: DIFlagPrototyped, spFlags: 0)
!311 = !DIImportedEntity(tag: DW_TAG_imported_declaration, scope: !17, entity: !312, file: !293, line: 140)
!312 = !DISubprogram(name: "atof", scope: !288, file: !288, line: 101, type: !313, flags: DIFlagPrototyped, spFlags: 0)
!313 = !DISubroutineType(types: !314)
!314 = !{!315, !65}
!315 = !DIBasicType(name: "double", size: 64, encoding: DW_ATE_float)
!316 = !DIImportedEntity(tag: DW_TAG_imported_declaration, scope: !17, entity: !317, file: !293, line: 141)
!317 = !DISubprogram(name: "atoi", scope: !288, file: !288, line: 104, type: !138, flags: DIFlagPrototyped, spFlags: 0)
!318 = !DIImportedEntity(tag: DW_TAG_imported_declaration, scope: !17, entity: !319, file: !293, line: 142)
!319 = !DISubprogram(name: "atol", scope: !288, file: !288, line: 107, type: !320, flags: DIFlagPrototyped, spFlags: 0)
!320 = !DISubroutineType(types: !321)
!321 = !{!98, !65}
!322 = !DIImportedEntity(tag: DW_TAG_imported_declaration, scope: !17, entity: !323, file: !293, line: 143)
!323 = !DISubprogram(name: "bsearch", scope: !288, file: !288, line: 820, type: !324, flags: DIFlagPrototyped, spFlags: 0)
!324 = !DISubroutineType(types: !325)
!325 = !{!87, !114, !114, !83, !83, !326}
!326 = !DIDerivedType(tag: DW_TAG_typedef, name: "__compar_fn_t", file: !288, line: 808, baseType: !327)
!327 = !DIDerivedType(tag: DW_TAG_pointer_type, baseType: !328, size: 64)
!328 = !DISubroutineType(types: !329)
!329 = !{!38, !114, !114}
!330 = !DIImportedEntity(tag: DW_TAG_imported_declaration, scope: !17, entity: !331, file: !293, line: 144)
!331 = !DISubprogram(name: "calloc", scope: !288, file: !288, line: 542, type: !332, flags: DIFlagPrototyped, spFlags: 0)
!332 = !DISubroutineType(types: !333)
!333 = !{!87, !83, !83}
!334 = !DIImportedEntity(tag: DW_TAG_imported_declaration, scope: !17, entity: !335, file: !293, line: 145)
!335 = !DISubprogram(name: "div", scope: !288, file: !288, line: 852, type: !336, flags: DIFlagPrototyped, spFlags: 0)
!336 = !DISubroutineType(types: !337)
!337 = !{!291, !38, !38}
!338 = !DIImportedEntity(tag: DW_TAG_imported_declaration, scope: !17, entity: !339, file: !293, line: 146)
!339 = !DISubprogram(name: "exit", scope: !288, file: !288, line: 617, type: !340, flags: DIFlagPrototyped | DIFlagNoReturn, spFlags: 0)
!340 = !DISubroutineType(types: !341)
!341 = !{null, !38}
!342 = !DIImportedEntity(tag: DW_TAG_imported_declaration, scope: !17, entity: !343, file: !293, line: 147)
!343 = !DISubprogram(name: "free", scope: !288, file: !288, line: 565, type: !344, flags: DIFlagPrototyped, spFlags: 0)
!344 = !DISubroutineType(types: !345)
!345 = !{null, !87}
!346 = !DIImportedEntity(tag: DW_TAG_imported_declaration, scope: !17, entity: !347, file: !293, line: 148)
!347 = !DISubprogram(name: "getenv", scope: !288, file: !288, line: 634, type: !348, flags: DIFlagPrototyped, spFlags: 0)
!348 = !DISubroutineType(types: !349)
!349 = !{!58, !65}
!350 = !DIImportedEntity(tag: DW_TAG_imported_declaration, scope: !17, entity: !351, file: !293, line: 149)
!351 = !DISubprogram(name: "labs", scope: !288, file: !288, line: 841, type: !352, flags: DIFlagPrototyped, spFlags: 0)
!352 = !DISubroutineType(types: !353)
!353 = !{!98, !98}
!354 = !DIImportedEntity(tag: DW_TAG_imported_declaration, scope: !17, entity: !355, file: !293, line: 150)
!355 = !DISubprogram(name: "ldiv", scope: !288, file: !288, line: 854, type: !356, flags: DIFlagPrototyped, spFlags: 0)
!356 = !DISubroutineType(types: !357)
!357 = !{!295, !98, !98}
!358 = !DIImportedEntity(tag: DW_TAG_imported_declaration, scope: !17, entity: !359, file: !293, line: 151)
!359 = !DISubprogram(name: "malloc", scope: !288, file: !288, line: 539, type: !360, flags: DIFlagPrototyped, spFlags: 0)
!360 = !DISubroutineType(types: !361)
!361 = !{!87, !83}
!362 = !DIImportedEntity(tag: DW_TAG_imported_declaration, scope: !17, entity: !363, file: !293, line: 153)
!363 = !DISubprogram(name: "mblen", scope: !288, file: !288, line: 922, type: !364, flags: DIFlagPrototyped, spFlags: 0)
!364 = !DISubroutineType(types: !365)
!365 = !{!38, !65, !83}
!366 = !DIImportedEntity(tag: DW_TAG_imported_declaration, scope: !17, entity: !367, file: !293, line: 154)
!367 = !DISubprogram(name: "mbstowcs", scope: !288, file: !288, line: 933, type: !368, flags: DIFlagPrototyped, spFlags: 0)
!368 = !DISubroutineType(types: !369)
!369 = !{!83, !370, !64, !83}
!370 = !DIDerivedType(tag: DW_TAG_restrict_type, baseType: !371)
!371 = !DIDerivedType(tag: DW_TAG_pointer_type, baseType: !372, size: 64)
!372 = !DIBasicType(name: "wchar_t", size: 32, encoding: DW_ATE_signed)
!373 = !DIImportedEntity(tag: DW_TAG_imported_declaration, scope: !17, entity: !374, file: !293, line: 155)
!374 = !DISubprogram(name: "mbtowc", scope: !288, file: !288, line: 925, type: !375, flags: DIFlagPrototyped, spFlags: 0)
!375 = !DISubroutineType(types: !376)
!376 = !{!38, !370, !64, !83}
!377 = !DIImportedEntity(tag: DW_TAG_imported_declaration, scope: !17, entity: !378, file: !293, line: 157)
!378 = !DISubprogram(name: "qsort", scope: !288, file: !288, line: 830, type: !379, flags: DIFlagPrototyped, spFlags: 0)
!379 = !DISubroutineType(types: !380)
!380 = !{null, !87, !83, !83, !326}
!381 = !DIImportedEntity(tag: DW_TAG_imported_declaration, scope: !17, entity: !382, file: !293, line: 160)
!382 = !DISubprogram(name: "quick_exit", scope: !288, file: !288, line: 623, type: !340, flags: DIFlagPrototyped | DIFlagNoReturn, spFlags: 0)
!383 = !DIImportedEntity(tag: DW_TAG_imported_declaration, scope: !17, entity: !384, file: !293, line: 163)
!384 = !DISubprogram(name: "rand", scope: !288, file: !288, line: 453, type: !120, flags: DIFlagPrototyped, spFlags: 0)
!385 = !DIImportedEntity(tag: DW_TAG_imported_declaration, scope: !17, entity: !386, file: !293, line: 164)
!386 = !DISubprogram(name: "realloc", scope: !288, file: !288, line: 550, type: !387, flags: DIFlagPrototyped, spFlags: 0)
!387 = !DISubroutineType(types: !388)
!388 = !{!87, !87, !83}
!389 = !DIImportedEntity(tag: DW_TAG_imported_declaration, scope: !17, entity: !390, file: !293, line: 165)
!390 = !DISubprogram(name: "srand", scope: !288, file: !288, line: 455, type: !391, flags: DIFlagPrototyped, spFlags: 0)
!391 = !DISubroutineType(types: !392)
!392 = !{null, !393}
!393 = !DIBasicType(name: "unsigned int", size: 32, encoding: DW_ATE_unsigned)
!394 = !DIImportedEntity(tag: DW_TAG_imported_declaration, scope: !17, entity: !395, file: !293, line: 166)
!395 = !DISubprogram(name: "strtod", scope: !288, file: !288, line: 117, type: !396, flags: DIFlagPrototyped, spFlags: 0)
!396 = !DISubroutineType(types: !397)
!397 = !{!315, !64, !398}
!398 = !DIDerivedType(tag: DW_TAG_restrict_type, baseType: !399)
!399 = !DIDerivedType(tag: DW_TAG_pointer_type, baseType: !58, size: 64)
!400 = !DIImportedEntity(tag: DW_TAG_imported_declaration, scope: !17, entity: !401, file: !293, line: 167)
!401 = !DISubprogram(name: "strtol", scope: !288, file: !288, line: 176, type: !402, flags: DIFlagPrototyped, spFlags: 0)
!402 = !DISubroutineType(types: !403)
!403 = !{!98, !64, !398, !38}
!404 = !DIImportedEntity(tag: DW_TAG_imported_declaration, scope: !17, entity: !405, file: !293, line: 168)
!405 = !DISubprogram(name: "strtoul", scope: !288, file: !288, line: 180, type: !406, flags: DIFlagPrototyped, spFlags: 0)
!406 = !DISubroutineType(types: !407)
!407 = !{!85, !64, !398, !38}
!408 = !DIImportedEntity(tag: DW_TAG_imported_declaration, scope: !17, entity: !409, file: !293, line: 169)
!409 = !DISubprogram(name: "system", scope: !288, file: !288, line: 784, type: !138, flags: DIFlagPrototyped, spFlags: 0)
!410 = !DIImportedEntity(tag: DW_TAG_imported_declaration, scope: !17, entity: !411, file: !293, line: 171)
!411 = !DISubprogram(name: "wcstombs", scope: !288, file: !288, line: 936, type: !412, flags: DIFlagPrototyped, spFlags: 0)
!412 = !DISubroutineType(types: !413)
!413 = !{!83, !59, !414, !83}
!414 = !DIDerivedType(tag: DW_TAG_restrict_type, baseType: !415)
!415 = !DIDerivedType(tag: DW_TAG_pointer_type, baseType: !416, size: 64)
!416 = !DIDerivedType(tag: DW_TAG_const_type, baseType: !372)
!417 = !DIImportedEntity(tag: DW_TAG_imported_declaration, scope: !17, entity: !418, file: !293, line: 172)
!418 = !DISubprogram(name: "wctomb", scope: !288, file: !288, line: 929, type: !419, flags: DIFlagPrototyped, spFlags: 0)
!419 = !DISubroutineType(types: !420)
!420 = !{!38, !58, !372}
!421 = !DIImportedEntity(tag: DW_TAG_imported_declaration, scope: !191, entity: !422, file: !293, line: 200)
!422 = !DIDerivedType(tag: DW_TAG_typedef, name: "lldiv_t", file: !288, line: 80, baseType: !423)
!423 = distinct !DICompositeType(tag: DW_TAG_structure_type, file: !288, line: 76, size: 128, flags: DIFlagTypePassByValue, elements: !424, identifier: "_ZTS7lldiv_t")
!424 = !{!425, !427}
!425 = !DIDerivedType(tag: DW_TAG_member, name: "quot", scope: !423, file: !288, line: 78, baseType: !426, size: 64)
!426 = !DIBasicType(name: "long long int", size: 64, encoding: DW_ATE_signed)
!427 = !DIDerivedType(tag: DW_TAG_member, name: "rem", scope: !423, file: !288, line: 79, baseType: !426, size: 64, offset: 64)
!428 = !DIImportedEntity(tag: DW_TAG_imported_declaration, scope: !191, entity: !429, file: !293, line: 206)
!429 = !DISubprogram(name: "_Exit", scope: !288, file: !288, line: 629, type: !340, flags: DIFlagPrototyped | DIFlagNoReturn, spFlags: 0)
!430 = !DIImportedEntity(tag: DW_TAG_imported_declaration, scope: !191, entity: !431, file: !293, line: 210)
!431 = !DISubprogram(name: "llabs", scope: !288, file: !288, line: 844, type: !432, flags: DIFlagPrototyped, spFlags: 0)
!432 = !DISubroutineType(types: !433)
!433 = !{!426, !426}
!434 = !DIImportedEntity(tag: DW_TAG_imported_declaration, scope: !191, entity: !435, file: !293, line: 216)
!435 = !DISubprogram(name: "lldiv", scope: !288, file: !288, line: 858, type: !436, flags: DIFlagPrototyped, spFlags: 0)
!436 = !DISubroutineType(types: !437)
!437 = !{!422, !426, !426}
!438 = !DIImportedEntity(tag: DW_TAG_imported_declaration, scope: !191, entity: !439, file: !293, line: 227)
!439 = !DISubprogram(name: "atoll", scope: !288, file: !288, line: 112, type: !440, flags: DIFlagPrototyped, spFlags: 0)
!440 = !DISubroutineType(types: !441)
!441 = !{!426, !65}
!442 = !DIImportedEntity(tag: DW_TAG_imported_declaration, scope: !191, entity: !443, file: !293, line: 228)
!443 = !DISubprogram(name: "strtoll", scope: !288, file: !288, line: 200, type: !444, flags: DIFlagPrototyped, spFlags: 0)
!444 = !DISubroutineType(types: !445)
!445 = !{!426, !64, !398, !38}
!446 = !DIImportedEntity(tag: DW_TAG_imported_declaration, scope: !191, entity: !447, file: !293, line: 229)
!447 = !DISubprogram(name: "strtoull", scope: !288, file: !288, line: 205, type: !448, flags: DIFlagPrototyped, spFlags: 0)
!448 = !DISubroutineType(types: !449)
!449 = !{!450, !64, !398, !38}
!450 = !DIBasicType(name: "long long unsigned int", size: 64, encoding: DW_ATE_unsigned)
!451 = !DIImportedEntity(tag: DW_TAG_imported_declaration, scope: !191, entity: !452, file: !293, line: 231)
!452 = !DISubprogram(name: "strtof", scope: !288, file: !288, line: 123, type: !453, flags: DIFlagPrototyped, spFlags: 0)
!453 = !DISubroutineType(types: !454)
!454 = !{!455, !64, !398}
!455 = !DIBasicType(name: "float", size: 32, encoding: DW_ATE_float)
!456 = !DIImportedEntity(tag: DW_TAG_imported_declaration, scope: !191, entity: !457, file: !293, line: 232)
!457 = !DISubprogram(name: "strtold", scope: !288, file: !288, line: 126, type: !458, flags: DIFlagPrototyped, spFlags: 0)
!458 = !DISubroutineType(types: !459)
!459 = !{!460, !64, !398}
!460 = !DIBasicType(name: "long double", size: 128, encoding: DW_ATE_float)
!461 = !DIImportedEntity(tag: DW_TAG_imported_declaration, scope: !17, entity: !422, file: !293, line: 240)
!462 = !DIImportedEntity(tag: DW_TAG_imported_declaration, scope: !17, entity: !429, file: !293, line: 242)
!463 = !DIImportedEntity(tag: DW_TAG_imported_declaration, scope: !17, entity: !431, file: !293, line: 244)
!464 = !DIImportedEntity(tag: DW_TAG_imported_declaration, scope: !17, entity: !465, file: !293, line: 245)
!465 = !DISubprogram(name: "div", linkageName: "_ZN9__gnu_cxx3divExx", scope: !191, file: !293, line: 213, type: !436, flags: DIFlagPrototyped, spFlags: 0)
!466 = !DIImportedEntity(tag: DW_TAG_imported_declaration, scope: !17, entity: !435, file: !293, line: 246)
!467 = !DIImportedEntity(tag: DW_TAG_imported_declaration, scope: !17, entity: !439, file: !293, line: 248)
!468 = !DIImportedEntity(tag: DW_TAG_imported_declaration, scope: !17, entity: !452, file: !293, line: 249)
!469 = !DIImportedEntity(tag: DW_TAG_imported_declaration, scope: !17, entity: !443, file: !293, line: 250)
!470 = !DIImportedEntity(tag: DW_TAG_imported_declaration, scope: !17, entity: !447, file: !293, line: 251)
!471 = !DIImportedEntity(tag: DW_TAG_imported_declaration, scope: !17, entity: !457, file: !293, line: 252)
!472 = !DIImportedEntity(tag: DW_TAG_imported_module, scope: !2, entity: !17, file: !473, line: 9)
!473 = !DIFile(filename: "./AES.h", directory: "/root/dev/Pluto-Obfuscator/test/aes")
!474 = !{i32 7, !"Dwarf Version", i32 4}
!475 = !{i32 2, !"Debug Info Version", i32 3}
!476 = !{i32 1, !"wchar_size", i32 4}
!477 = !{!"clang version 12.0.1 (git@github.com:bluesadi/Pluto-Obfuscator.git 3d6277c2840cc0f1693b81b7424b2315b24dad89)"}
!478 = distinct !DISubprogram(name: "main", scope: !3, file: !3, line: 10, type: !479, scopeLine: 10, flags: DIFlagPrototyped, spFlags: DISPFlagDefinition, unit: !2, retainedNodes: !4)
!479 = !DISubroutineType(types: !480)
!480 = !{!38, !38, !399}
!481 = !DILocalVariable(name: "argc", arg: 1, scope: !478, file: !3, line: 10, type: !38)
!482 = !DILocation(line: 10, column: 14, scope: !478)
!483 = !DILocalVariable(name: "argv", arg: 2, scope: !478, file: !3, line: 10, type: !399)
!484 = !DILocation(line: 10, column: 26, scope: !478)
!485 = !DILocation(line: 11, column: 5, scope: !478)
!486 = !DILocation(line: 12, column: 13, scope: !478)
!487 = !DILocation(line: 12, column: 11, scope: !478)
!488 = !DILocation(line: 13, column: 34, scope: !478)
!489 = !DILocation(line: 13, column: 5, scope: !478)
!490 = !DILocalVariable(name: "aes", scope: !478, file: !3, line: 14, type: !491)
!491 = distinct !DICompositeType(tag: DW_TAG_class_type, name: "AES", file: !473, line: 15, size: 192, flags: DIFlagTypePassByValue | DIFlagNonTrivial, elements: !492, identifier: "_ZTS3AES")
!492 = !{!493, !494, !495, !496, !497, !498, !503, !506, !507, !510, !513, !517, !520, !523, !524, !525, !526, !529, !530, !533, !534, !535, !536, !537, !540, !541, !542, !543, !546, !549, !552, !553, !554, !555, !556, !557, !558}
!493 = !DIDerivedType(tag: DW_TAG_member, name: "Nb", scope: !491, file: !473, line: 18, baseType: !38, size: 32, flags: DIFlagPublic)
!494 = !DIDerivedType(tag: DW_TAG_member, name: "Nk", scope: !491, file: !473, line: 19, baseType: !38, size: 32, offset: 32, flags: DIFlagPublic)
!495 = !DIDerivedType(tag: DW_TAG_member, name: "Ns", scope: !491, file: !473, line: 20, baseType: !38, size: 32, offset: 64, flags: DIFlagPublic)
!496 = !DIDerivedType(tag: DW_TAG_member, name: "Nr", scope: !491, file: !473, line: 21, baseType: !38, size: 32, offset: 96, flags: DIFlagPublic)
!497 = !DIDerivedType(tag: DW_TAG_member, name: "key", scope: !491, file: !473, line: 22, baseType: !6, size: 64, offset: 128, flags: DIFlagPublic)
!498 = !DISubprogram(name: "ZeroPadding", linkageName: "_ZN3AES11ZeroPaddingEPhiRi", scope: !491, file: !473, line: 25, type: !499, scopeLine: 25, flags: DIFlagPublic | DIFlagPrototyped, spFlags: 0)
!499 = !DISubroutineType(types: !500)
!500 = !{!6, !501, !6, !38, !502}
!501 = !DIDerivedType(tag: DW_TAG_pointer_type, baseType: !491, size: 64, flags: DIFlagArtificial | DIFlagObjectPointer)
!502 = !DIDerivedType(tag: DW_TAG_reference_type, baseType: !38, size: 64)
!503 = !DISubprogram(name: "RotWord", linkageName: "_ZN3AES7RotWordEPh", scope: !491, file: !473, line: 27, type: !504, scopeLine: 27, flags: DIFlagPublic | DIFlagPrototyped, spFlags: 0)
!504 = !DISubroutineType(types: !505)
!505 = !{null, !501, !6}
!506 = !DISubprogram(name: "SubWord", linkageName: "_ZN3AES7SubWordEPh", scope: !491, file: !473, line: 29, type: !504, scopeLine: 29, flags: DIFlagPublic | DIFlagPrototyped, spFlags: 0)
!507 = !DISubprogram(name: "SubByte", linkageName: "_ZN3AES7SubByteEh", scope: !491, file: !473, line: 31, type: !508, scopeLine: 31, flags: DIFlagPublic | DIFlagPrototyped, spFlags: 0)
!508 = !DISubroutineType(types: !509)
!509 = !{!7, !501, !7}
!510 = !DISubprogram(name: "KeyExpansion", linkageName: "_ZN3AES12KeyExpansionEv", scope: !491, file: !473, line: 33, type: !511, scopeLine: 33, flags: DIFlagPublic | DIFlagPrototyped, spFlags: 0)
!511 = !DISubroutineType(types: !512)
!512 = !{!6, !501}
!513 = !DISubprogram(name: "AddRoundKey", linkageName: "_ZN3AES11AddRoundKeyEPPhS0_", scope: !491, file: !473, line: 35, type: !514, scopeLine: 35, flags: DIFlagPublic | DIFlagPrototyped, spFlags: 0)
!514 = !DISubroutineType(types: !515)
!515 = !{null, !501, !516, !6}
!516 = !DIDerivedType(tag: DW_TAG_pointer_type, baseType: !6, size: 64)
!517 = !DISubprogram(name: "SubBytes", linkageName: "_ZN3AES8SubBytesEPPh", scope: !491, file: !473, line: 37, type: !518, scopeLine: 37, flags: DIFlagPublic | DIFlagPrototyped, spFlags: 0)
!518 = !DISubroutineType(types: !519)
!519 = !{null, !501, !516}
!520 = !DISubprogram(name: "ShiftRow", linkageName: "_ZN3AES8ShiftRowEPhi", scope: !491, file: !473, line: 39, type: !521, scopeLine: 39, flags: DIFlagPublic | DIFlagPrototyped, spFlags: 0)
!521 = !DISubroutineType(types: !522)
!522 = !{null, !501, !6, !38}
!523 = !DISubprogram(name: "ShiftRows", linkageName: "_ZN3AES9ShiftRowsEPPh", scope: !491, file: !473, line: 41, type: !518, scopeLine: 41, flags: DIFlagPublic | DIFlagPrototyped, spFlags: 0)
!524 = !DISubprogram(name: "MixSingleColumn", linkageName: "_ZN3AES15MixSingleColumnEPh", scope: !491, file: !473, line: 43, type: !504, scopeLine: 43, flags: DIFlagPublic | DIFlagPrototyped, spFlags: 0)
!525 = !DISubprogram(name: "MixColumns", linkageName: "_ZN3AES10MixColumnsEPPh", scope: !491, file: !473, line: 45, type: !518, scopeLine: 45, flags: DIFlagPublic | DIFlagPrototyped, spFlags: 0)
!526 = !DISubprogram(name: "EncryptBlock", linkageName: "_ZN3AES12EncryptBlockEPhS0_", scope: !491, file: !473, line: 47, type: !527, scopeLine: 47, flags: DIFlagPublic | DIFlagPrototyped, spFlags: 0)
!527 = !DISubroutineType(types: !528)
!528 = !{!6, !501, !6, !6}
!529 = !DISubprogram(name: "xtime", linkageName: "_ZN3AES5xtimeEh", scope: !491, file: !473, line: 49, type: !508, scopeLine: 49, flags: DIFlagPublic | DIFlagPrototyped, spFlags: 0)
!530 = !DISubprogram(name: "mul", linkageName: "_ZN3AES3mulEhh", scope: !491, file: !473, line: 51, type: !531, scopeLine: 51, flags: DIFlagPublic | DIFlagPrototyped, spFlags: 0)
!531 = !DISubroutineType(types: !532)
!532 = !{!7, !501, !7, !7}
!533 = !DISubprogram(name: "InvSubBytes", linkageName: "_ZN3AES11InvSubBytesEPPh", scope: !491, file: !473, line: 53, type: !518, scopeLine: 53, flags: DIFlagPublic | DIFlagPrototyped, spFlags: 0)
!534 = !DISubprogram(name: "InvShiftRows", linkageName: "_ZN3AES12InvShiftRowsEPPh", scope: !491, file: !473, line: 55, type: !518, scopeLine: 55, flags: DIFlagPublic | DIFlagPrototyped, spFlags: 0)
!535 = !DISubprogram(name: "InvMixSingleColumn", linkageName: "_ZN3AES18InvMixSingleColumnEPh", scope: !491, file: !473, line: 57, type: !504, scopeLine: 57, flags: DIFlagPublic | DIFlagPrototyped, spFlags: 0)
!536 = !DISubprogram(name: "InvMixColumns", linkageName: "_ZN3AES13InvMixColumnsEPPh", scope: !491, file: !473, line: 59, type: !518, scopeLine: 59, flags: DIFlagPublic | DIFlagPrototyped, spFlags: 0)
!537 = !DISubprogram(name: "XorBlock", linkageName: "_ZN3AES8XorBlockEPhS0_", scope: !491, file: !473, line: 61, type: !538, scopeLine: 61, flags: DIFlagPublic | DIFlagPrototyped, spFlags: 0)
!538 = !DISubroutineType(types: !539)
!539 = !{null, !501, !6, !6}
!540 = !DISubprogram(name: "ShiftBV", linkageName: "_ZN3AES7ShiftBVEPhS0_", scope: !491, file: !473, line: 63, type: !538, scopeLine: 63, flags: DIFlagPublic | DIFlagPrototyped, spFlags: 0)
!541 = !DISubprogram(name: "DecryptBlock", linkageName: "_ZN3AES12DecryptBlockEPhS0_", scope: !491, file: !473, line: 65, type: !527, scopeLine: 65, flags: DIFlagPublic | DIFlagPrototyped, spFlags: 0)
!542 = !DISubprogram(name: "EncryptECB", linkageName: "_ZN3AES10EncryptECBEPhiRi", scope: !491, file: !473, line: 67, type: !499, scopeLine: 67, flags: DIFlagPublic | DIFlagPrototyped, spFlags: 0)
!543 = !DISubprogram(name: "DecryptECB", linkageName: "_ZN3AES10DecryptECBEPhi", scope: !491, file: !473, line: 69, type: !544, scopeLine: 69, flags: DIFlagPublic | DIFlagPrototyped, spFlags: 0)
!544 = !DISubroutineType(types: !545)
!545 = !{!6, !501, !6, !38}
!546 = !DISubprogram(name: "EncryptCBC", linkageName: "_ZN3AES10EncryptCBCEPhiS0_Ri", scope: !491, file: !473, line: 71, type: !547, scopeLine: 71, flags: DIFlagPublic | DIFlagPrototyped, spFlags: 0)
!547 = !DISubroutineType(types: !548)
!548 = !{!6, !501, !6, !38, !6, !502}
!549 = !DISubprogram(name: "DecryptCBC", linkageName: "_ZN3AES10DecryptCBCEPhiS0_", scope: !491, file: !473, line: 73, type: !550, scopeLine: 73, flags: DIFlagPublic | DIFlagPrototyped, spFlags: 0)
!550 = !DISubroutineType(types: !551)
!551 = !{!6, !501, !6, !38, !6}
!552 = !DISubprogram(name: "EncryptCFB", linkageName: "_ZN3AES10EncryptCFBEPhiS0_Ri", scope: !491, file: !473, line: 75, type: !547, scopeLine: 75, flags: DIFlagPublic | DIFlagPrototyped, spFlags: 0)
!553 = !DISubprogram(name: "DecryptCFB", linkageName: "_ZN3AES10DecryptCFBEPhiS0_", scope: !491, file: !473, line: 77, type: !550, scopeLine: 77, flags: DIFlagPublic | DIFlagPrototyped, spFlags: 0)
!554 = !DISubprogram(name: "EncryptOFB", linkageName: "_ZN3AES10EncryptOFBEPhiS0_Ri", scope: !491, file: !473, line: 79, type: !547, scopeLine: 79, flags: DIFlagPublic | DIFlagPrototyped, spFlags: 0)
!555 = !DISubprogram(name: "DecryptOFB", linkageName: "_ZN3AES10DecryptOFBEPhiS0_", scope: !491, file: !473, line: 81, type: !550, scopeLine: 81, flags: DIFlagPublic | DIFlagPrototyped, spFlags: 0)
!556 = !DISubprogram(name: "AES", scope: !491, file: !473, line: 83, type: !521, scopeLine: 83, flags: DIFlagPublic | DIFlagPrototyped, spFlags: 0)
!557 = !DISubprogram(name: "PrintHex", linkageName: "_ZN3AES8PrintHexEPhi", scope: !491, file: !473, line: 85, type: !521, scopeLine: 85, flags: DIFlagPublic | DIFlagPrototyped, spFlags: 0)
!558 = !DISubprogram(name: "Test", linkageName: "_ZN3AES4TestEv", scope: !491, file: !473, line: 87, type: !559, scopeLine: 87, flags: DIFlagPublic | DIFlagPrototyped, spFlags: 0)
!559 = !DISubroutineType(types: !560)
!560 = !{null, !501}
!561 = !DILocation(line: 14, column: 9, scope: !478)
!562 = !DILocalVariable(name: "outlen", scope: !478, file: !3, line: 15, type: !38)
!563 = !DILocation(line: 15, column: 9, scope: !478)
!564 = !DILocalVariable(name: "dest", scope: !478, file: !3, line: 16, type: !6)
!565 = !DILocation(line: 16, column: 20, scope: !478)
!566 = !DILocation(line: 16, column: 49, scope: !478)
!567 = !DILocation(line: 16, column: 31, scope: !478)
!568 = !DILocation(line: 17, column: 15, scope: !569)
!569 = distinct !DILexicalBlock(scope: !478, file: !3, line: 17, column: 8)
!570 = !DILocation(line: 17, column: 8, scope: !569)
!571 = !DILocation(line: 17, column: 22, scope: !569)
!572 = !DILocation(line: 17, column: 28, scope: !569)
!573 = !DILocation(line: 17, column: 39, scope: !569)
!574 = !DILocation(line: 17, column: 32, scope: !569)
!575 = !DILocation(line: 17, column: 8, scope: !478)
!576 = !DILocation(line: 18, column: 9, scope: !577)
!577 = distinct !DILexicalBlock(scope: !569, file: !3, line: 17, column: 54)
!578 = !DILocation(line: 19, column: 9, scope: !577)
!579 = !DILocation(line: 21, column: 9, scope: !580)
!580 = distinct !DILexicalBlock(scope: !569, file: !3, line: 20, column: 10)
!581 = !DILocation(line: 22, column: 9, scope: !580)
!582 = !DILocation(line: 24, column: 1, scope: !478)
